target datalayout = "e-m:e-p270:32:32-p271:32:32-p272:64:64-i64:64-i128:128-f80:128-n8:16:32:64-S128"
target triple = "x86_64-pc-linux-gnu"

%struct.DdManager = type { %struct.DdNode, ptr, ptr, ptr, ptr, ptr, ptr, ptr, i32, i32, double, double, double, i32, i32, i32, i32, i32, i32, ptr, ptr, %struct.DdSubtable, i32, i32, i32, i32, i32, i32, i32, double, i32, i32, i32, ptr, i64, double, i32, ptr, ptr, ptr, ptr, ptr, ptr, ptr, i32, ptr, ptr, ptr, ptr, ptr, ptr, i32, i32, i32, double, i32, i32, i32, i32, double, double, i32, i32, i32, i32, i32, i32, i32, i32, i32, ptr, ptr, i32, i32, i32, i32, i32, i32, ptr, ptr, ptr, ptr, ptr, ptr, ptr, ptr, i32, i64, i64, i64, i32, i64, i64, double, double, double, double, double, double, i32, ptr, ptr, i64 }
%struct.DdNode = type { i32, i32, ptr, %union.anon, i64 }
%union.anon = type { %struct.DdChildren }
%struct.DdChildren = type { ptr, ptr }
%struct.DdSubtable = type { ptr, i32, i32, i32, i32, i32, i32, i32, i32, i32, i32, i32 }

@.str.37 = private unnamed_addr constant [4 x i8] c" 1\0A\00", align 1

; Function Attrs: nounwind uwtable
define internal void @zddPrintCoverAux(ptr noundef %0, ptr noundef %1, i32 noundef %2, ptr noundef %3) #0 {
  %5 = alloca ptr, align 8
  %6 = alloca ptr, align 8
  %7 = alloca i32, align 4
  %8 = alloca ptr, align 8
  %9 = alloca ptr, align 8
  %10 = alloca ptr, align 8
  %11 = alloca i32, align 4
  %12 = alloca i32, align 4
  %13 = alloca ptr, align 8
  store ptr %0, ptr %5, align 8
  store ptr %1, ptr %6, align 8
  store i32 %2, ptr %7, align 4
  store ptr %3, ptr %8, align 8
  %14 = load ptr, ptr %5, align 8
  %15 = getelementptr inbounds %struct.DdManager, ptr %14, i32 0, i32 1
  %16 = load ptr, ptr %15, align 8
  store ptr %16, ptr %13, align 8
  %17 = load ptr, ptr %6, align 8
  %18 = ptrtoint ptr %17 to i64
  %19 = and i64 %18, -2
  %20 = inttoptr i64 %19 to ptr
  %21 = getelementptr inbounds %struct.DdNode, ptr %20, i32 0, i32 0
  %22 = load i32, ptr %21, align 8
  %23 = icmp eq i32 %22, 2147483647
  br i1 %23, label %24, label %111

24:                                               ; preds = %4
  %25 = load ptr, ptr %6, align 8
  %26 = load ptr, ptr %13, align 8
  %27 = icmp eq ptr %25, %26
  br i1 %27, label %28, label %110

28:                                               ; preds = %24
  %29 = load i32, ptr %7, align 4
  %30 = load ptr, ptr %5, align 8
  %31 = getelementptr inbounds %struct.DdManager, ptr %30, i32 0, i32 16
  %32 = load i32, ptr %31, align 4
  %33 = icmp ne i32 %29, %32
  br i1 %33, label %34, label %50

34:                                               ; preds = %28
  %35 = load ptr, ptr %8, align 8
  %36 = load ptr, ptr %5, align 8
  %37 = getelementptr inbounds %struct.DdManager, ptr %36, i32 0, i32 40
  %38 = load ptr, ptr %37, align 8
  %39 = load i32, ptr %7, align 4
  %40 = sext i32 %39 to i64
  %41 = getelementptr inbounds i32, ptr %38, i64 %40
  %42 = load i32, ptr %41, align 4
  %43 = sext i32 %42 to i64
  %44 = getelementptr inbounds i32, ptr %35, i64 %43
  store i32 0, ptr %44, align 4
  %45 = load ptr, ptr %5, align 8
  %46 = load ptr, ptr %6, align 8
  %47 = load i32, ptr %7, align 4
  %48 = add nsw i32 %47, 1
  %49 = load ptr, ptr %8, align 8
  call void @zddPrintCoverAux(ptr noundef %45, ptr noundef %46, i32 noundef %48, ptr noundef %49)
  br label %198

50:                                               ; preds = %28
  store i32 0, ptr %11, align 4
  br label %51

51:                                               ; preds = %102, %50
  %52 = load i32, ptr %11, align 4
  %53 = load ptr, ptr %5, align 8
  %54 = getelementptr inbounds %struct.DdManager, ptr %53, i32 0, i32 16
  %55 = load i32, ptr %54, align 4
  %56 = icmp slt i32 %52, %55
  br i1 %56, label %57, label %105

57:                                               ; preds = %51
  %58 = load ptr, ptr %8, align 8
  %59 = load i32, ptr %11, align 4
  %60 = sext i32 %59 to i64
  %61 = getelementptr inbounds i32, ptr %58, i64 %60
  %62 = load i32, ptr %61, align 4
  %63 = mul nsw i32 %62, 4
  %64 = load ptr, ptr %8, align 8
  %65 = load i32, ptr %11, align 4
  %66 = add nsw i32 %65, 1
  %67 = sext i32 %66 to i64
  %68 = getelementptr inbounds i32, ptr %64, i64 %67
  %69 = load i32, ptr %68, align 4
  %70 = add nsw i32 %63, %69
  store i32 %70, ptr %12, align 4
  %71 = load i32, ptr %12, align 4
  %72 = icmp eq i32 %71, 0
  br i1 %72, label %73, label %78

73:                                               ; preds = %57
  %74 = load ptr, ptr %5, align 8
  %75 = getelementptr inbounds %struct.DdManager, ptr %74, i32 0, i32 84
  %76 = load ptr, ptr %75, align 8
  %77 = call i32 @putc(i32 noundef 45, ptr noundef %76)
  br label %101

78:                                               ; preds = %57
  %79 = load i32, ptr %12, align 4
  %80 = icmp eq i32 %79, 4
  br i1 %80, label %81, label %86

81:                                               ; preds = %78
  %82 = load ptr, ptr %5, align 8
  %83 = getelementptr inbounds %struct.DdManager, ptr %82, i32 0, i32 84
  %84 = load ptr, ptr %83, align 8
  %85 = call i32 @putc(i32 noundef 49, ptr noundef %84)
  br label %100

86:                                               ; preds = %78
  %87 = load i32, ptr %12, align 4
  %88 = icmp eq i32 %87, 1
  br i1 %88, label %89, label %94

89:                                               ; preds = %86
  %90 = load ptr, ptr %5, align 8
  %91 = getelementptr inbounds %struct.DdManager, ptr %90, i32 0, i32 84
  %92 = load ptr, ptr %91, align 8
  %93 = call i32 @putc(i32 noundef 48, ptr noundef %92)
  br label %99

94:                                               ; preds = %86
  %95 = load ptr, ptr %5, align 8
  %96 = getelementptr inbounds %struct.DdManager, ptr %95, i32 0, i32 84
  %97 = load ptr, ptr %96, align 8
  %98 = call i32 @putc(i32 noundef 64, ptr noundef %97)
  br label %99

99:                                               ; preds = %94, %89
  br label %100

100:                                              ; preds = %99, %81
  br label %101

101:                                              ; preds = %100, %73
  br label %102

102:                                              ; preds = %101
  %103 = load i32, ptr %11, align 4
  %104 = add nsw i32 %103, 2
  store i32 %104, ptr %11, align 4
  br label %51, !llvm.loop !8

105:                                              ; preds = %51
  %106 = load ptr, ptr %5, align 8
  %107 = getelementptr inbounds %struct.DdManager, ptr %106, i32 0, i32 84
  %108 = load ptr, ptr %107, align 8
  %109 = call i32 (ptr, ptr, ...) @fprintf(ptr noundef %108, ptr noundef @.str.37) #5
  br label %110

110:                                              ; preds = %105, %24
  br label %197

111:                                              ; preds = %4
  %112 = load i32, ptr %7, align 4
  %113 = load ptr, ptr %6, align 8
  %114 = getelementptr inbounds %struct.DdNode, ptr %113, i32 0, i32 0
  %115 = load i32, ptr %114, align 8
  %116 = icmp eq i32 %115, 2147483647
  br i1 %116, label %117, label %121

117:                                              ; preds = %111
  %118 = load ptr, ptr %6, align 8
  %119 = getelementptr inbounds %struct.DdNode, ptr %118, i32 0, i32 0
  %120 = load i32, ptr %119, align 8
  br label %131

121:                                              ; preds = %111
  %122 = load ptr, ptr %5, align 8
  %123 = getelementptr inbounds %struct.DdManager, ptr %122, i32 0, i32 38
  %124 = load ptr, ptr %123, align 8
  %125 = load ptr, ptr %6, align 8
  %126 = getelementptr inbounds %struct.DdNode, ptr %125, i32 0, i32 0
  %127 = load i32, ptr %126, align 8
  %128 = zext i32 %127 to i64
  %129 = getelementptr inbounds i32, ptr %124, i64 %128
  %130 = load i32, ptr %129, align 4
  br label %131

131:                                              ; preds = %121, %117
  %132 = phi i32 [ %120, %117 ], [ %130, %121 ]
  %133 = icmp ne i32 %112, %132
  br i1 %133, label %134, label %150

134:                                              ; preds = %131
  %135 = load ptr, ptr %8, align 8
  %136 = load ptr, ptr %5, align 8
  %137 = getelementptr inbounds %struct.DdManager, ptr %136, i32 0, i32 40
  %138 = load ptr, ptr %137, align 8
  %139 = load i32, ptr %7, align 4
  %140 = sext i32 %139 to i64
  %141 = getelementptr inbounds i32, ptr %138, i64 %140
  %142 = load i32, ptr %141, align 4
  %143 = sext i32 %142 to i64
  %144 = getelementptr inbounds i32, ptr %135, i64 %143
  store i32 0, ptr %144, align 4
  %145 = load ptr, ptr %5, align 8
  %146 = load ptr, ptr %6, align 8
  %147 = load i32, ptr %7, align 4
  %148 = add nsw i32 %147, 1
  %149 = load ptr, ptr %8, align 8
  call void @zddPrintCoverAux(ptr noundef %145, ptr noundef %146, i32 noundef %148, ptr noundef %149)
  br label %198

150:                                              ; preds = %131
  %151 = load ptr, ptr %6, align 8
  %152 = getelementptr inbounds %struct.DdNode, ptr %151, i32 0, i32 3
  %153 = getelementptr inbounds %struct.DdChildren, ptr %152, i32 0, i32 1
  %154 = load ptr, ptr %153, align 8
  store ptr %154, ptr %10, align 8
  %155 = load ptr, ptr %6, align 8
  %156 = getelementptr inbounds %struct.DdNode, ptr %155, i32 0, i32 3
  %157 = getelementptr inbounds %struct.DdChildren, ptr %156, i32 0, i32 0
  %158 = load ptr, ptr %157, align 8
  store ptr %158, ptr %9, align 8
  %159 = load ptr, ptr %9, align 8
  %160 = load ptr, ptr %10, align 8
  %161 = icmp eq ptr %159, %160
  br i1 %161, label %162, label %174

162:                                              ; preds = %150
  %163 = load ptr, ptr %8, align 8
  %164 = load ptr, ptr %6, align 8
  %165 = getelementptr inbounds %struct.DdNode, ptr %164, i32 0, i32 0
  %166 = load i32, ptr %165, align 8
  %167 = zext i32 %166 to i64
  %168 = getelementptr inbounds i32, ptr %163, i64 %167
  store i32 2, ptr %168, align 4
  %169 = load ptr, ptr %5, align 8
  %170 = load ptr, ptr %10, align 8
  %171 = load i32, ptr %7, align 4
  %172 = add nsw i32 %171, 1
  %173 = load ptr, ptr %8, align 8
  call void @zddPrintCoverAux(ptr noundef %169, ptr noundef %170, i32 noundef %172, ptr noundef %173)
  br label %198

174:                                              ; preds = %150
  %175 = load ptr, ptr %8, align 8
  %176 = load ptr, ptr %6, align 8
  %177 = getelementptr inbounds %struct.DdNode, ptr %176, i32 0, i32 0
  %178 = load i32, ptr %177, align 8
  %179 = zext i32 %178 to i64
  %180 = getelementptr inbounds i32, ptr %175, i64 %179
  store i32 1, ptr %180, align 4
  %181 = load ptr, ptr %5, align 8
  %182 = load ptr, ptr %9, align 8
  %183 = load i32, ptr %7, align 4
  %184 = add nsw i32 %183, 1
  %185 = load ptr, ptr %8, align 8
  call void @zddPrintCoverAux(ptr noundef %181, ptr noundef %182, i32 noundef %184, ptr noundef %185)
  %186 = load ptr, ptr %8, align 8
  %187 = load ptr, ptr %6, align 8
  %188 = getelementptr inbounds %struct.DdNode, ptr %187, i32 0, i32 0
  %189 = load i32, ptr %188, align 8
  %190 = zext i32 %189 to i64
  %191 = getelementptr inbounds i32, ptr %186, i64 %190
  store i32 0, ptr %191, align 4
  %192 = load ptr, ptr %5, align 8
  %193 = load ptr, ptr %10, align 8
  %194 = load i32, ptr %7, align 4
  %195 = add nsw i32 %194, 1
  %196 = load ptr, ptr %8, align 8
  call void @zddPrintCoverAux(ptr noundef %192, ptr noundef %193, i32 noundef %195, ptr noundef %196)
  br label %197

197:                                              ; preds = %174, %110
  br label %198

198:                                              ; preds = %197, %162, %134, %34
  ret void
}