; Function Attrs: nofree nounwind uwtable
define internal fastcc void @zddPrintCoverAux(ptr noundef readonly captures(none) %0, ptr noundef %1, i32 noundef %2, ptr noundef nonnull captures(none) %3) unnamed_addr #2 {
  %5 = getelementptr inbounds nuw i8, ptr %0, i64 320
  %6 = getelementptr inbounds nuw i8, ptr %0, i64 336
  %7 = getelementptr inbounds nuw i8, ptr %0, i64 40
  %8 = getelementptr inbounds nuw i8, ptr %0, i64 140
  br label %tailrecurse.outer

tailrecurse.outer:                                ; preds = %tailrecurse.outer.backedge, %4
  %.tr70.ph = phi ptr [ %1, %4 ], [ %61, %tailrecurse.outer.backedge ]
  %.tr71.ph = phi i32 [ %2, %4 ], [ %66, %tailrecurse.outer.backedge ]
  %9 = ptrtoint ptr %.tr70.ph to i64
  %10 = and i64 %9, -2
  %11 = inttoptr i64 %10 to ptr
  %12 = sext i32 %.tr71.ph to i64
  br label %tailrecurse

tailrecurse:                                      ; preds = %tailrecurse.backedge, %tailrecurse.outer
  %indvars.iv = phi i64 [ %indvars.iv.next, %tailrecurse.backedge ], [ %12, %tailrecurse.outer ]
  %13 = load i32, ptr %11, align 8
  %14 = icmp eq i32 %13, 2147483647
  br i1 %14, label %15, label %47

15:                                               ; preds = %tailrecurse
  %16 = load ptr, ptr %7, align 8
  %17 = icmp eq ptr %.tr70.ph, %16
  br i1 %17, label %18, label %.loopexit

18:                                               ; preds = %15
  %19 = load i32, ptr %8, align 4
  %20 = trunc nsw i64 %indvars.iv to i32
  %.not69 = icmp eq i32 %19, %20
  br i1 %.not69, label %.preheader, label %tailrecurse.backedge

.preheader:                                       ; preds = %18
  %21 = icmp sgt i64 %indvars.iv, 0
  br i1 %21, label %.lr.ph, label %._crit_edge

.lr.ph:                                           ; preds = %.preheader
  %22 = getelementptr inbounds nuw i8, ptr %0, i64 608
  br label %28

tailrecurse.backedge:                             ; preds = %18, %55
  %23 = load ptr, ptr %6, align 8
  %24 = getelementptr inbounds i32, ptr %23, i64 %indvars.iv
  %25 = load i32, ptr %24, align 4
  %26 = sext i32 %25 to i64
  %27 = getelementptr inbounds i32, ptr %3, i64 %26
  store i32 0, ptr %27, align 4
  %indvars.iv.next = add nsw i64 %indvars.iv, 1
  br label %tailrecurse

28:                                               ; preds = %.lr.ph, %39
  %indvars.iv80 = phi i64 [ 0, %.lr.ph ], [ %indvars.iv.next81, %39 ]
  %29 = getelementptr inbounds nuw i32, ptr %3, i64 %indvars.iv80
  %30 = load i32, ptr %29, align 4
  %31 = shl nsw i32 %30, 2
  %32 = or disjoint i64 %indvars.iv80, 1
  %33 = getelementptr inbounds nuw i32, ptr %3, i64 %32
  %34 = load i32, ptr %33, align 4
  %35 = add nsw i32 %31, %34
  %36 = load ptr, ptr %22, align 8
  %37 = icmp ult i32 %35, 5
  br i1 %37, label %switch.lookup, label %39

switch.lookup:                                    ; preds = %28
  %38 = zext nneg i32 %35 to i64
  %switch.gep = getelementptr inbounds nuw [5 x i32], ptr @switch.table.zddPrintCoverAux, i64 0, i64 %38
  %switch.load = load i32, ptr %switch.gep, align 4
  br label %39

39:                                               ; preds = %28, %switch.lookup
  %.sink = phi i32 [ %switch.load, %switch.lookup ], [ 64, %28 ]
  %40 = tail call i32 @putc(i32 noundef %.sink, ptr noundef %36)
  %indvars.iv.next81 = add nuw nsw i64 %indvars.iv80, 2
  %41 = load i32, ptr %8, align 4
  %42 = trunc nuw i64 %indvars.iv.next81 to i32
  %43 = icmp sgt i32 %41, %42
  br i1 %43, label %28, label %._crit_edge, !llvm.loop !8

._crit_edge:                                      ; preds = %39, %.preheader
  %44 = getelementptr inbounds nuw i8, ptr %0, i64 608
  %45 = load ptr, ptr %44, align 8
  %46 = tail call i64 @fwrite(ptr nonnull @.str.37, i64 3, i64 1, ptr %45)
  br label %.loopexit

47:                                               ; preds = %tailrecurse
  %48 = load i32, ptr %.tr70.ph, align 8
  %49 = icmp eq i32 %48, 2147483647
  br i1 %49, label %55, label %50

50:                                               ; preds = %47
  %51 = load ptr, ptr %5, align 8
  %52 = zext i32 %48 to i64
  %53 = getelementptr inbounds nuw i32, ptr %51, i64 %52
  %54 = load i32, ptr %53, align 4
  br label %55

55:                                               ; preds = %47, %50
  %56 = phi i32 [ %54, %50 ], [ 2147483647, %47 ]
  %57 = trunc nsw i64 %indvars.iv to i32
  %.not = icmp eq i32 %56, %57
  br i1 %.not, label %58, label %tailrecurse.backedge

58:                                               ; preds = %55
  %59 = getelementptr inbounds nuw i8, ptr %.tr70.ph, i64 16
  %60 = getelementptr inbounds nuw i8, ptr %.tr70.ph, i64 24
  %61 = load ptr, ptr %60, align 8
  %62 = load ptr, ptr %59, align 8
  %63 = icmp eq ptr %62, %61
  %64 = zext i32 %48 to i64
  %65 = getelementptr inbounds nuw i32, ptr %3, i64 %64
  %66 = add nsw i32 %56, 1
  br i1 %63, label %67, label %68

67:                                               ; preds = %58
  store i32 2, ptr %65, align 4
  br label %tailrecurse.outer.backedge

tailrecurse.outer.backedge:                       ; preds = %67, %68
  br label %tailrecurse.outer

68:                                               ; preds = %58
  store i32 1, ptr %65, align 4
  tail call fastcc void @zddPrintCoverAux(ptr noundef %0, ptr noundef %62, i32 noundef %66, ptr noundef %3)
  %69 = load i32, ptr %.tr70.ph, align 8
  %70 = zext i32 %69 to i64
  %71 = getelementptr inbounds nuw i32, ptr %3, i64 %70
  store i32 0, ptr %71, align 4
  br label %tailrecurse.outer.backedge

.loopexit:                                        ; preds = %15, %._crit_edge
  ret void
}